; Function Attrs: nounwind uwtable
define internal range(i32 -12, 1) i32 @ac4_read_header(ptr noundef %0) #1 {
  %2 = tail call ptr @avformat_new_stream(ptr noundef %0, ptr noundef null) #4
  %.not = icmp eq ptr %2, null
  br i1 %.not, label %7, label %3

3:                                                ; preds = %1
  %4 = getelementptr inbounds nuw i8, ptr %2, i64 16
  %5 = load ptr, ptr %4, align 8, !tbaa !13
  store i32 1, ptr %5, align 8, !tbaa !23
  %6 = getelementptr inbounds nuw i8, ptr %5, i64 4
  store i32 86119, ptr %6, align 4, !tbaa !26
  br label %7

7:                                                ; preds = %1, %3
  %.0 = phi i32 [ 0, %3 ], [ -12, %1 ]
  ret i32 %.0
}